; Function Attrs: mustprogress uwtable
define noundef i32 @_Z11tMPI_GatherPKviP14tmpi_datatype_PviS2_iP10tmpi_comm_(ptr noundef %0, i32 noundef %1, ptr noundef %2, ptr noundef %3, i32 noundef %4, ptr noundef %5, i32 noundef %6, ptr noundef %7) local_unnamed_addr #0 {
  %9 = alloca i32, align 4
  %10 = alloca i32, align 4
  store i32 0, ptr %10, align 4
  %11 = tail call noundef ptr @_Z23tMPI_Thread_getspecific17tMPI_Thread_key_t(ptr noundef nonnull byval(%struct.tMPI_Thread_key_t) align 8 @id_key)
  %.not = icmp eq ptr %7, null
  br i1 %.not, label %12, label %15

12:                                               ; preds = %8
  %13 = load ptr, ptr @TMPI_COMM_WORLD, align 8
  %14 = tail call noundef i32 @_Z10tMPI_ErrorP10tmpi_comm_i(ptr noundef %13, i32 noundef 6)
  br label %.loopexit84

15:                                               ; preds = %8
  %16 = tail call noundef i32 @_Z19tMPI_Comm_seek_rankP10tmpi_comm_P11tmpi_thread(ptr noundef nonnull %7, ptr noundef %11)
  %17 = call noundef ptr @_Z12tMPI_Get_cevP10tmpi_comm_iPi(ptr noundef nonnull %7, i32 noundef %16, ptr noundef nonnull %9)
  %18 = icmp eq i32 %16, %6
  br i1 %18, label %19, label %90

19:                                               ; preds = %15
  %20 = load i32, ptr %7, align 8
  %21 = add nsw i32 %20, -1
  %.not81 = icmp eq ptr %0, null
  br i1 %.not81, label %33, label %22

22:                                               ; preds = %19
  %23 = load i64, ptr %2, align 8
  %24 = sext i32 %1 to i64
  %25 = mul i64 %23, %24
  %26 = load i64, ptr %5, align 8
  %27 = sext i32 %4 to i64
  %28 = mul i64 %26, %27
  %29 = mul nsw i32 %6, %4
  %30 = sext i32 %29 to i64
  %31 = mul i64 %26, %30
  %32 = getelementptr inbounds i8, ptr %3, i64 %31
  call void @_Z19tMPI_Coll_root_xferP10tmpi_comm_P14tmpi_datatype_S2_mmPvS3_Pi(ptr noundef nonnull %7, ptr noundef nonnull %2, ptr noundef nonnull %5, i64 noundef %25, i64 noundef %28, ptr noundef nonnull %0, ptr noundef %32, ptr noundef nonnull %10)
  %.pre = load i32, ptr %7, align 8
  br label %33

33:                                               ; preds = %22, %19
  %34 = phi i32 [ %.pre, %22 ], [ %20, %19 ]
  %35 = icmp sgt i32 %34, 0
  %36 = sext i32 %6 to i64
  br i1 %35, label %.lr.ph, label %._crit_edge

.lr.ph:                                           ; preds = %33, %.lr.ph
  %indvars.iv = phi i64 [ %indvars.iv.next, %.lr.ph ], [ 0, %33 ]
  %37 = load ptr, ptr %17, align 8
  %38 = getelementptr inbounds %struct.coll_env_thread, ptr %37, i64 %36, i32 8
  %39 = load ptr, ptr %38, align 8
  %40 = getelementptr inbounds i32, ptr %39, i64 %indvars.iv
  store i32 0, ptr %40, align 4
  %indvars.iv.next = add nuw nsw i64 %indvars.iv, 1
  %41 = load i32, ptr %7, align 8
  %42 = sext i32 %41 to i64
  %43 = icmp slt i64 %indvars.iv.next, %42
  br i1 %43, label %.lr.ph, label %._crit_edge, !llvm.loop !4

._crit_edge:                                      ; preds = %.lr.ph, %33
  %44 = load ptr, ptr %17, align 8
  %45 = getelementptr inbounds %struct.coll_env_thread, ptr %44, i64 %36, i32 8
  %46 = load ptr, ptr %45, align 8
  %47 = getelementptr inbounds i32, ptr %46, i64 %36
  store i32 1, ptr %47, align 4
  %48 = icmp sgt i32 %20, 1
  br i1 %48, label %.lr.ph94, label %.loopexit85

.lr.ph94:                                         ; preds = %._crit_edge
  %49 = sext i32 %4 to i64
  br label %51

.loopexit:                                        ; preds = %86, %51
  %.1.lcssa = phi i32 [ %.092, %51 ], [ %.2, %86 ]
  %50 = icmp sgt i32 %.1.lcssa, 0
  br i1 %50, label %51, label %.loopexit85, !llvm.loop !6

51:                                               ; preds = %.lr.ph94, %.loopexit
  %.092 = phi i32 [ %21, %.lr.ph94 ], [ %.1.lcssa, %.loopexit ]
  %52 = load ptr, ptr %17, align 8
  %53 = getelementptr inbounds %struct.coll_env_thread, ptr %52, i64 %36, i32 7
  %54 = call noundef i32 @_Z15tMPI_Event_waitP12tMPI_Event_t(ptr noundef nonnull %53)
  %55 = load i32, ptr %7, align 8
  %56 = icmp sgt i32 %55, 0
  br i1 %56, label %.lr.ph91, label %.loopexit

.lr.ph91:                                         ; preds = %51, %86
  %57 = phi i32 [ %87, %86 ], [ %55, %51 ]
  %indvars.iv96 = phi i64 [ %indvars.iv.next97, %86 ], [ 0, %51 ]
  %.189 = phi i32 [ %.2, %86 ], [ %.092, %51 ]
  %58 = load ptr, ptr %17, align 8
  %59 = getelementptr inbounds %struct.coll_env_thread, ptr %58, i64 %36, i32 8
  %60 = load ptr, ptr %59, align 8
  %61 = getelementptr inbounds i32, ptr %60, i64 %indvars.iv96
  %62 = load i32, ptr %61, align 4
  %.not82 = icmp eq i32 %62, 0
  br i1 %.not82, label %63, label %86

63:                                               ; preds = %.lr.ph91
  %64 = getelementptr inbounds %struct.coll_env_thread, ptr %58, i64 %indvars.iv96
  %65 = load i32, ptr %64, align 8
  %66 = load i32, ptr %9, align 4
  %67 = icmp eq i32 %65, %66
  br i1 %67, label %68, label %86

68:                                               ; preds = %63
  %69 = load i64, ptr %5, align 8
  %70 = mul i64 %69, %49
  %71 = mul nsw i64 %indvars.iv96, %49
  %72 = mul i64 %69, %71
  %73 = getelementptr inbounds i8, ptr %3, i64 %72
  %74 = trunc nuw nsw i64 %indvars.iv96 to i32
  call void @_Z14tMPI_Mult_recvP10tmpi_comm_P8coll_enviiiP14tmpi_datatype_mPvPi(ptr noundef nonnull %7, ptr noundef nonnull %17, i32 noundef %74, i32 noundef 0, i32 noundef 2, ptr noundef nonnull %5, i64 noundef %70, ptr noundef %73, ptr noundef nonnull %10)
  %75 = load ptr, ptr %17, align 8
  %76 = getelementptr inbounds %struct.coll_env_thread, ptr %75, i64 %36, i32 7, i32 1
  %77 = load i32, ptr %76, align 4
  %78 = add nsw i32 %77, 1
  store i32 %78, ptr %76, align 4
  %79 = load i32, ptr %10, align 4
  %.not83 = icmp eq i32 %79, 0
  br i1 %.not83, label %80, label %.loopexit84

80:                                               ; preds = %68
  %81 = load ptr, ptr %17, align 8
  %82 = getelementptr inbounds %struct.coll_env_thread, ptr %81, i64 %36, i32 8
  %83 = load ptr, ptr %82, align 8
  %84 = getelementptr inbounds i32, ptr %83, i64 %indvars.iv96
  store i32 1, ptr %84, align 4
  %85 = add nsw i32 %.189, -1
  %.pre99 = load i32, ptr %7, align 8
  br label %86

86:                                               ; preds = %.lr.ph91, %63, %80
  %87 = phi i32 [ %57, %.lr.ph91 ], [ %.pre99, %80 ], [ %57, %63 ]
  %.2 = phi i32 [ %.189, %.lr.ph91 ], [ %85, %80 ], [ %.189, %63 ]
  %indvars.iv.next97 = add nuw nsw i64 %indvars.iv96, 1
  %88 = sext i32 %87 to i64
  %89 = icmp slt i64 %indvars.iv.next97, %88
  br i1 %89, label %.lr.ph91, label %.loopexit, !llvm.loop !7

90:                                               ; preds = %15
  %91 = icmp eq ptr %0, null
  %92 = icmp sgt i32 %1, 0
  %or.cond = and i1 %91, %92
  br i1 %or.cond, label %93, label %95

93:                                               ; preds = %90
  %94 = call noundef i32 @_Z10tMPI_ErrorP10tmpi_comm_i(ptr noundef nonnull %7, i32 noundef 17)
  br label %.loopexit84

95:                                               ; preds = %90
  %96 = sext i32 %1 to i64
  %97 = load i64, ptr %2, align 8
  %98 = mul i64 %97, %96
  %99 = load i32, ptr %9, align 4
  %100 = call noundef i32 @_Z15tMPI_Post_multiP8coll_enviiiP14tmpi_datatype_mPviii(ptr noundef %17, i32 noundef %16, i32 noundef 0, i32 noundef 2, ptr noundef nonnull %2, i64 noundef %98, ptr noundef %0, i32 noundef 1, i32 noundef %99, i32 noundef %6)
  store i32 %100, ptr %10, align 4
  %.not80 = icmp eq i32 %100, 0
  br i1 %.not80, label %101, label %.loopexit84

101:                                              ; preds = %95
  call void @_Z20tMPI_Wait_for_othersP8coll_envi(ptr noundef %17, i32 noundef %16)
  br label %.loopexit85

.loopexit85:                                      ; preds = %.loopexit, %._crit_edge, %101
  %102 = load i32, ptr %10, align 4
  br label %.loopexit84

.loopexit84:                                      ; preds = %68, %95, %.loopexit85, %93, %12
  %.072 = phi i32 [ %102, %.loopexit85 ], [ %94, %93 ], [ %14, %12 ], [ %100, %95 ], [ %79, %68 ]
  ret i32 %.072
}